; ModuleID = '19/622.c'
source_filename = "19/622.c"
target datalayout = "e-m:e-p270:32:32-p271:32:32-p272:64:64-i64:64-f80:128-n8:16:32:64-S128"
target triple = "x86_64-pc-linux-gnu"

%struct._IO_FILE = type { i32, i8*, i8*, i8*, i8*, i8*, i8*, i8*, i8*, i8*, i8*, i8*, %struct._IO_marker*, %struct._IO_FILE*, i32, i32, i64, i16, i8, [1 x i8], i8*, i64, %struct._IO_codecvt*, %struct._IO_wide_data*, %struct._IO_FILE*, i8*, i64, i32, [20 x i8] }
%struct._IO_marker = type opaque
%struct._IO_codecvt = type opaque
%struct._IO_wide_data = type opaque

@Size = dso_local global i32 0, align 4
@stdin = external dso_local global %struct._IO_FILE*, align 8
@.str = private unnamed_addr constant [3 x i8] c"%s\00", align 1
@S = common dso_local global [1000 x [100 x i8]] zeroinitializer, align 16
@.str.1 = private unnamed_addr constant [4 x i8] c"%s \00", align 1
@.str.2 = private unnamed_addr constant [4 x i8] c"%s\0A\00", align 1

; Function Attrs: noinline nounwind uwtable
define dso_local i32 @main() #0 {
  %1 = alloca i32, align 4
  %2 = alloca i32, align 4
  store i32 0, i32* %1, align 4
  br label %3

3:                                                ; preds = %8, %0
  %4 = load %struct._IO_FILE*, %struct._IO_FILE** @stdin, align 8
  %5 = call i32 @feof(%struct._IO_FILE* %4) #4
  %6 = icmp ne i32 %5, 0
  %7 = xor i1 %6, true
  br i1 %7, label %8, label %15

8:                                                ; preds = %3
  %9 = load i32, i32* @Size, align 4
  %10 = add nsw i32 %9, 1
  store i32 %10, i32* @Size, align 4
  %11 = sext i32 %9 to i64
  %12 = getelementptr inbounds [1000 x [100 x i8]], [1000 x [100 x i8]]* @S, i64 0, i64 %11
  %13 = getelementptr inbounds [100 x i8], [100 x i8]* %12, i64 0, i64 0
  %14 = call i32 (i8*, ...) @__isoc99_scanf(i8* getelementptr inbounds ([3 x i8], [3 x i8]* @.str, i64 0, i64 0), i8* %13)
  br label %3

15:                                               ; preds = %3
  %16 = load i32, i32* @Size, align 4
  %17 = add nsw i32 %16, -1
  store i32 %17, i32* @Size, align 4
  store i32 0, i32* %2, align 4
  br label %18

18:                                               ; preds = %49, %15
  %19 = load i32, i32* %2, align 4
  %20 = load i32, i32* @Size, align 4
  %21 = sub nsw i32 %20, 3
  %22 = icmp slt i32 %19, %21
  br i1 %22, label %23, label %52

23:                                               ; preds = %18
  %24 = load i32, i32* %2, align 4
  %25 = sext i32 %24 to i64
  %26 = getelementptr inbounds [1000 x [100 x i8]], [1000 x [100 x i8]]* @S, i64 0, i64 %25
  %27 = getelementptr inbounds [100 x i8], [100 x i8]* %26, i64 0, i64 0
  %28 = load i32, i32* @Size, align 4
  %29 = sub nsw i32 %28, 2
  %30 = sext i32 %29 to i64
  %31 = getelementptr inbounds [1000 x [100 x i8]], [1000 x [100 x i8]]* @S, i64 0, i64 %30
  %32 = getelementptr inbounds [100 x i8], [100 x i8]* %31, i64 0, i64 0
  %33 = call i32 @strcmp(i8* %27, i8* %32) #5
  %34 = icmp eq i32 %33, 0
  br i1 %34, label %35, label %42

35:                                               ; preds = %23
  %36 = load i32, i32* @Size, align 4
  %37 = sub nsw i32 %36, 1
  %38 = sext i32 %37 to i64
  %39 = getelementptr inbounds [1000 x [100 x i8]], [1000 x [100 x i8]]* @S, i64 0, i64 %38
  %40 = getelementptr inbounds [100 x i8], [100 x i8]* %39, i64 0, i64 0
  %41 = call i32 (i8*, ...) @printf(i8* getelementptr inbounds ([4 x i8], [4 x i8]* @.str.1, i64 0, i64 0), i8* %40)
  br label %48

42:                                               ; preds = %23
  %43 = load i32, i32* %2, align 4
  %44 = sext i32 %43 to i64
  %45 = getelementptr inbounds [1000 x [100 x i8]], [1000 x [100 x i8]]* @S, i64 0, i64 %44
  %46 = getelementptr inbounds [100 x i8], [100 x i8]* %45, i64 0, i64 0
  %47 = call i32 (i8*, ...) @printf(i8* getelementptr inbounds ([4 x i8], [4 x i8]* @.str.1, i64 0, i64 0), i8* %46)
  br label %48

48:                                               ; preds = %42, %35
  br label %49

49:                                               ; preds = %48
  %50 = load i32, i32* %2, align 4
  %51 = add nsw i32 %50, 1
  store i32 %51, i32* %2, align 4
  br label %18

52:                                               ; preds = %18
  %53 = load i32, i32* @Size, align 4
  %54 = sub nsw i32 %53, 3
  %55 = sext i32 %54 to i64
  %56 = getelementptr inbounds [1000 x [100 x i8]], [1000 x [100 x i8]]* @S, i64 0, i64 %55
  %57 = getelementptr inbounds [100 x i8], [100 x i8]* %56, i64 0, i64 0
  %58 = load i32, i32* @Size, align 4
  %59 = sub nsw i32 %58, 2
  %60 = sext i32 %59 to i64
  %61 = getelementptr inbounds [1000 x [100 x i8]], [1000 x [100 x i8]]* @S, i64 0, i64 %60
  %62 = getelementptr inbounds [100 x i8], [100 x i8]* %61, i64 0, i64 0
  %63 = call i32 @strcmp(i8* %57, i8* %62) #5
  %64 = icmp eq i32 %63, 0
  br i1 %64, label %65, label %72

65:                                               ; preds = %52
  %66 = load i32, i32* @Size, align 4
  %67 = sub nsw i32 %66, 1
  %68 = sext i32 %67 to i64
  %69 = getelementptr inbounds [1000 x [100 x i8]], [1000 x [100 x i8]]* @S, i64 0, i64 %68
  %70 = getelementptr inbounds [100 x i8], [100 x i8]* %69, i64 0, i64 0
  %71 = call i32 (i8*, ...) @printf(i8* getelementptr inbounds ([4 x i8], [4 x i8]* @.str.2, i64 0, i64 0), i8* %70)
  br label %79

72:                                               ; preds = %52
  %73 = load i32, i32* @Size, align 4
  %74 = sub nsw i32 %73, 3
  %75 = sext i32 %74 to i64
  %76 = getelementptr inbounds [1000 x [100 x i8]], [1000 x [100 x i8]]* @S, i64 0, i64 %75
  %77 = getelementptr inbounds [100 x i8], [100 x i8]* %76, i64 0, i64 0
  %78 = call i32 (i8*, ...) @printf(i8* getelementptr inbounds ([4 x i8], [4 x i8]* @.str.2, i64 0, i64 0), i8* %77)
  br label %79

79:                                               ; preds = %72, %65
  ret i32 0
}

; Function Attrs: nounwind
declare dso_local i32 @feof(%struct._IO_FILE*) #1

declare dso_local i32 @__isoc99_scanf(i8*, ...) #2

; Function Attrs: nounwind readonly
declare dso_local i32 @strcmp(i8*, i8*) #3

declare dso_local i32 @printf(i8*, ...) #2


!llvm.module.flags = !{!0}
!llvm.ident = !{!1}

!0 = !{i32 1, !"wchar_size", i32 4}
!1 = !{!"clang version 10.0.0-4ubuntu1 "}
